target datalayout = "e-m:e-p270:32:32-p271:32:32-p272:64:64-i64:64-i128:128-f80:128-n8:16:32:64-S128"
target triple = "x86_64-pc-linux-gnu"

; Function Attrs: nounwind uwtable
define internal void @compress_alpha(ptr noundef %0, i64 noundef %1, ptr noundef %2) #1 {
  %4 = alloca ptr, align 8
  %5 = alloca i64, align 8
  %6 = alloca ptr, align 8
  %7 = alloca i32, align 4
  %8 = alloca i32, align 4
  %9 = alloca i32, align 4
  %10 = alloca i32, align 4
  %11 = alloca i32, align 4
  %12 = alloca i32, align 4
  %13 = alloca i32, align 4
  %14 = alloca i32, align 4
  %15 = alloca i32, align 4
  %16 = alloca i32, align 4
  %17 = alloca i32, align 4
  %18 = alloca i32, align 4
  %19 = alloca i32, align 4
  %20 = alloca i32, align 4
  %21 = alloca i32, align 4
  store ptr %0, ptr %4, align 8, !tbaa !13
  store i64 %1, ptr %5, align 8, !tbaa !15
  store ptr %2, ptr %6, align 8, !tbaa !13
  call void @llvm.lifetime.start.p0(i64 4, ptr %7) #7
  call void @llvm.lifetime.start.p0(i64 4, ptr %8) #7
  call void @llvm.lifetime.start.p0(i64 4, ptr %9) #7
  call void @llvm.lifetime.start.p0(i64 4, ptr %10) #7
  call void @llvm.lifetime.start.p0(i64 4, ptr %11) #7
  call void @llvm.lifetime.start.p0(i64 4, ptr %12) #7
  call void @llvm.lifetime.start.p0(i64 4, ptr %13) #7
  call void @llvm.lifetime.start.p0(i64 4, ptr %14) #7
  call void @llvm.lifetime.start.p0(i64 4, ptr %15) #7
  store i32 0, ptr %15, align 4, !tbaa !17
  call void @llvm.lifetime.start.p0(i64 4, ptr %16) #7
  store i32 0, ptr %16, align 4, !tbaa !17
  %22 = load ptr, ptr %4, align 8, !tbaa !13
  call void @llvm.memset.p0.i64(ptr align 1 %22, i8 0, i64 8, i1 false)
  %23 = load ptr, ptr %6, align 8, !tbaa !13
  %24 = getelementptr inbounds i8, ptr %23, i64 3
  %25 = load i8, ptr %24, align 1, !tbaa !46
  %26 = zext i8 %25 to i32
  store i32 %26, ptr %14, align 4, !tbaa !17
  store i32 %26, ptr %13, align 4, !tbaa !17
  store i32 0, ptr %8, align 4, !tbaa !17
  br label %27

27:                                               ; preds = %65, %3
  %28 = load i32, ptr %8, align 4, !tbaa !17
  %29 = icmp slt i32 %28, 4
  br i1 %29, label %30, label %68

30:                                               ; preds = %27
  store i32 0, ptr %7, align 4, !tbaa !17
  br label %31

31:                                               ; preds = %61, %30
  %32 = load i32, ptr %7, align 4, !tbaa !17
  %33 = icmp slt i32 %32, 4
  br i1 %33, label %34, label %64

34:                                               ; preds = %31
  call void @llvm.lifetime.start.p0(i64 4, ptr %17) #7
  %35 = load ptr, ptr %6, align 8, !tbaa !13
  %36 = load i32, ptr %7, align 4, !tbaa !17
  %37 = mul nsw i32 %36, 4
  %38 = add nsw i32 3, %37
  %39 = sext i32 %38 to i64
  %40 = load i32, ptr %8, align 4, !tbaa !17
  %41 = sext i32 %40 to i64
  %42 = load i64, ptr %5, align 8, !tbaa !15
  %43 = mul nsw i64 %41, %42
  %44 = add nsw i64 %39, %43
  %45 = getelementptr inbounds i8, ptr %35, i64 %44
  %46 = load i8, ptr %45, align 1, !tbaa !46
  %47 = zext i8 %46 to i32
  store i32 %47, ptr %17, align 4, !tbaa !17
  %48 = load i32, ptr %17, align 4, !tbaa !17
  %49 = load i32, ptr %13, align 4, !tbaa !17
  %50 = icmp slt i32 %48, %49
  br i1 %50, label %51, label %53

51:                                               ; preds = %34
  %52 = load i32, ptr %17, align 4, !tbaa !17
  store i32 %52, ptr %13, align 4, !tbaa !17
  br label %60

53:                                               ; preds = %34
  %54 = load i32, ptr %17, align 4, !tbaa !17
  %55 = load i32, ptr %14, align 4, !tbaa !17
  %56 = icmp sgt i32 %54, %55
  br i1 %56, label %57, label %59

57:                                               ; preds = %53
  %58 = load i32, ptr %17, align 4, !tbaa !17
  store i32 %58, ptr %14, align 4, !tbaa !17
  br label %59

59:                                               ; preds = %57, %53
  br label %60

60:                                               ; preds = %59, %51
  call void @llvm.lifetime.end.p0(i64 4, ptr %17) #7
  br label %61

61:                                               ; preds = %60
  %62 = load i32, ptr %7, align 4, !tbaa !17
  %63 = add nsw i32 %62, 1
  store i32 %63, ptr %7, align 4, !tbaa !17
  br label %31, !llvm.loop !79

64:                                               ; preds = %31
  br label %65

65:                                               ; preds = %64
  %66 = load i32, ptr %8, align 4, !tbaa !17
  %67 = add nsw i32 %66, 1
  store i32 %67, ptr %8, align 4, !tbaa !17
  br label %27, !llvm.loop !80

68:                                               ; preds = %27
  %69 = load i32, ptr %14, align 4, !tbaa !17
  %70 = trunc i32 %69 to i8
  %71 = load ptr, ptr %4, align 8, !tbaa !13
  %72 = getelementptr inbounds i8, ptr %71, i64 0
  store i8 %70, ptr %72, align 1, !tbaa !46
  %73 = load i32, ptr %13, align 4, !tbaa !17
  %74 = trunc i32 %73 to i8
  %75 = load ptr, ptr %4, align 8, !tbaa !13
  %76 = getelementptr inbounds i8, ptr %75, i64 1
  store i8 %74, ptr %76, align 1, !tbaa !46
  %77 = load ptr, ptr %4, align 8, !tbaa !13
  %78 = getelementptr inbounds i8, ptr %77, i64 2
  store ptr %78, ptr %4, align 8, !tbaa !13
  %79 = load i32, ptr %13, align 4, !tbaa !17
  %80 = load i32, ptr %14, align 4, !tbaa !17
  %81 = icmp eq i32 %79, %80
  br i1 %81, label %82, label %83

82:                                               ; preds = %68
  store i32 1, ptr %18, align 4
  br label %196

83:                                               ; preds = %68
  %84 = load i32, ptr %14, align 4, !tbaa !17
  %85 = load i32, ptr %13, align 4, !tbaa !17
  %86 = sub nsw i32 %84, %85
  store i32 %86, ptr %9, align 4, !tbaa !17
  %87 = load i32, ptr %9, align 4, !tbaa !17
  %88 = mul nsw i32 %87, 4
  store i32 %88, ptr %11, align 4, !tbaa !17
  %89 = load i32, ptr %9, align 4, !tbaa !17
  %90 = mul nsw i32 %89, 2
  store i32 %90, ptr %12, align 4, !tbaa !17
  %91 = load i32, ptr %9, align 4, !tbaa !17
  %92 = icmp slt i32 %91, 8
  br i1 %92, label %93, label %99

93:                                               ; preds = %83
  %94 = load i32, ptr %9, align 4, !tbaa !17
  %95 = sub nsw i32 %94, 1
  %96 = load i32, ptr %13, align 4, !tbaa !17
  %97 = mul nsw i32 %96, 7
  %98 = sub nsw i32 %95, %97
  store i32 %98, ptr %10, align 4, !tbaa !17
  br label %106

99:                                               ; preds = %83
  %100 = load i32, ptr %9, align 4, !tbaa !17
  %101 = sdiv i32 %100, 2
  %102 = add nsw i32 %101, 2
  %103 = load i32, ptr %13, align 4, !tbaa !17
  %104 = mul nsw i32 %103, 7
  %105 = sub nsw i32 %102, %104
  store i32 %105, ptr %10, align 4, !tbaa !17
  br label %106

106:                                              ; preds = %99, %93
  store i32 0, ptr %8, align 4, !tbaa !17
  br label %107

107:                                              ; preds = %192, %106
  %108 = load i32, ptr %8, align 4, !tbaa !17
  %109 = icmp slt i32 %108, 4
  br i1 %109, label %110, label %195

110:                                              ; preds = %107
  store i32 0, ptr %7, align 4, !tbaa !17
  br label %111

111:                                              ; preds = %188, %110
  %112 = load i32, ptr %7, align 4, !tbaa !17
  %113 = icmp slt i32 %112, 4
  br i1 %113, label %114, label %191

114:                                              ; preds = %111
  call void @llvm.lifetime.start.p0(i64 4, ptr %19) #7
  %115 = load ptr, ptr %6, align 8, !tbaa !13
  %116 = load i32, ptr %7, align 4, !tbaa !17
  %117 = mul nsw i32 %116, 4
  %118 = add nsw i32 3, %117
  %119 = sext i32 %118 to i64
  %120 = load i32, ptr %8, align 4, !tbaa !17
  %121 = sext i32 %120 to i64
  %122 = load i64, ptr %5, align 8, !tbaa !15
  %123 = mul nsw i64 %121, %122
  %124 = add nsw i64 %119, %123
  %125 = getelementptr inbounds i8, ptr %115, i64 %124
  %126 = load i8, ptr %125, align 1, !tbaa !46
  %127 = zext i8 %126 to i32
  %128 = mul nsw i32 %127, 7
  %129 = load i32, ptr %10, align 4, !tbaa !17
  %130 = add nsw i32 %128, %129
  store i32 %130, ptr %19, align 4, !tbaa !17
  call void @llvm.lifetime.start.p0(i64 4, ptr %20) #7
  call void @llvm.lifetime.start.p0(i64 4, ptr %21) #7
  %131 = load i32, ptr %19, align 4, !tbaa !17
  %132 = load i32, ptr %11, align 4, !tbaa !17
  %133 = icmp sge i32 %131, %132
  %134 = select i1 %133, i32 -1, i32 0
  store i32 %134, ptr %21, align 4, !tbaa !17
  %135 = load i32, ptr %21, align 4, !tbaa !17
  %136 = and i32 %135, 4
  store i32 %136, ptr %20, align 4, !tbaa !17
  %137 = load i32, ptr %11, align 4, !tbaa !17
  %138 = load i32, ptr %21, align 4, !tbaa !17
  %139 = and i32 %137, %138
  %140 = load i32, ptr %19, align 4, !tbaa !17
  %141 = sub nsw i32 %140, %139
  store i32 %141, ptr %19, align 4, !tbaa !17
  %142 = load i32, ptr %19, align 4, !tbaa !17
  %143 = load i32, ptr %12, align 4, !tbaa !17
  %144 = icmp sge i32 %142, %143
  %145 = select i1 %144, i32 -1, i32 0
  store i32 %145, ptr %21, align 4, !tbaa !17
  %146 = load i32, ptr %21, align 4, !tbaa !17
  %147 = and i32 %146, 2
  %148 = load i32, ptr %20, align 4, !tbaa !17
  %149 = add nsw i32 %148, %147
  store i32 %149, ptr %20, align 4, !tbaa !17
  %150 = load i32, ptr %12, align 4, !tbaa !17
  %151 = load i32, ptr %21, align 4, !tbaa !17
  %152 = and i32 %150, %151
  %153 = load i32, ptr %19, align 4, !tbaa !17
  %154 = sub nsw i32 %153, %152
  store i32 %154, ptr %19, align 4, !tbaa !17
  %155 = load i32, ptr %19, align 4, !tbaa !17
  %156 = load i32, ptr %9, align 4, !tbaa !17
  %157 = icmp sge i32 %155, %156
  %158 = zext i1 %157 to i32
  %159 = load i32, ptr %20, align 4, !tbaa !17
  %160 = add nsw i32 %159, %158
  store i32 %160, ptr %20, align 4, !tbaa !17
  %161 = load i32, ptr %20, align 4, !tbaa !17
  %162 = sub nsw i32 0, %161
  %163 = and i32 %162, 7
  store i32 %163, ptr %20, align 4, !tbaa !17
  %164 = load i32, ptr %20, align 4, !tbaa !17
  %165 = icmp sgt i32 2, %164
  %166 = zext i1 %165 to i32
  %167 = load i32, ptr %20, align 4, !tbaa !17
  %168 = xor i32 %167, %166
  store i32 %168, ptr %20, align 4, !tbaa !17
  %169 = load i32, ptr %20, align 4, !tbaa !17
  %170 = load i32, ptr %15, align 4, !tbaa !17
  %171 = shl i32 %169, %170
  %172 = load i32, ptr %16, align 4, !tbaa !17
  %173 = or i32 %172, %171
  store i32 %173, ptr %16, align 4, !tbaa !17
  %174 = load i32, ptr %15, align 4, !tbaa !17
  %175 = add nsw i32 %174, 3
  store i32 %175, ptr %15, align 4, !tbaa !17
  %176 = load i32, ptr %15, align 4, !tbaa !17
  %177 = icmp sge i32 %176, 8
  br i1 %177, label %178, label %187

178:                                              ; preds = %114
  %179 = load i32, ptr %16, align 4, !tbaa !17
  %180 = trunc i32 %179 to i8
  %181 = load ptr, ptr %4, align 8, !tbaa !13
  %182 = getelementptr inbounds nuw i8, ptr %181, i32 1
  store ptr %182, ptr %4, align 8, !tbaa !13
  store i8 %180, ptr %181, align 1, !tbaa !46
  %183 = load i32, ptr %16, align 4, !tbaa !17
  %184 = ashr i32 %183, 8
  store i32 %184, ptr %16, align 4, !tbaa !17
  %185 = load i32, ptr %15, align 4, !tbaa !17
  %186 = sub nsw i32 %185, 8
  store i32 %186, ptr %15, align 4, !tbaa !17
  br label %187

187:                                              ; preds = %178, %114
  call void @llvm.lifetime.end.p0(i64 4, ptr %21) #7
  call void @llvm.lifetime.end.p0(i64 4, ptr %20) #7
  call void @llvm.lifetime.end.p0(i64 4, ptr %19) #7
  br label %188

188:                                              ; preds = %187
  %189 = load i32, ptr %7, align 4, !tbaa !17
  %190 = add nsw i32 %189, 1
  store i32 %190, ptr %7, align 4, !tbaa !17
  br label %111, !llvm.loop !81

191:                                              ; preds = %111
  br label %192

192:                                              ; preds = %191
  %193 = load i32, ptr %8, align 4, !tbaa !17
  %194 = add nsw i32 %193, 1
  store i32 %194, ptr %8, align 4, !tbaa !17
  br label %107, !llvm.loop !82

195:                                              ; preds = %107
  store i32 0, ptr %18, align 4
  br label %196

196:                                              ; preds = %195, %82
  call void @llvm.lifetime.end.p0(i64 4, ptr %16) #7
  call void @llvm.lifetime.end.p0(i64 4, ptr %15) #7
  call void @llvm.lifetime.end.p0(i64 4, ptr %14) #7
  call void @llvm.lifetime.end.p0(i64 4, ptr %13) #7
  call void @llvm.lifetime.end.p0(i64 4, ptr %12) #7
  call void @llvm.lifetime.end.p0(i64 4, ptr %11) #7
  call void @llvm.lifetime.end.p0(i64 4, ptr %10) #7
  call void @llvm.lifetime.end.p0(i64 4, ptr %9) #7
  call void @llvm.lifetime.end.p0(i64 4, ptr %8) #7
  call void @llvm.lifetime.end.p0(i64 4, ptr %7) #7
  %197 = load i32, ptr %18, align 4
  switch i32 %197, label %199 [
    i32 0, label %198
    i32 1, label %198
  ]

198:                                              ; preds = %196, %196
  ret void

199:                                              ; preds = %196
  unreachable
}